; Function Attrs: mustprogress nounwind uwtable
define void @_ZN3zmq9channel_tD2Ev(ptr noundef nonnull align 8 dereferenceable(1840) %0) unnamed_addr #2 align 2 personality ptr @__gxx_personality_v0 {
  %2 = getelementptr inbounds nuw i8, ptr %0, i64 1832
  %3 = load ptr, ptr %2, align 8, !tbaa !6
  %.not = icmp eq ptr %3, null
  br i1 %.not, label %9, label %4, !prof !86

4:                                                ; preds = %1
  %5 = load ptr, ptr @stderr, align 8, !tbaa !87
  %6 = tail call i32 (ptr, ptr, ...) @fprintf(ptr noundef %5, ptr noundef nonnull @.str, ptr noundef nonnull @.str.1, ptr noundef nonnull @.str.2, i32 noundef 18) #13
  %7 = load ptr, ptr @stderr, align 8, !tbaa !87
  %8 = tail call i32 @fflush(ptr noundef %7)
  invoke void @_ZN3zmq9zmq_abortEPKc(ptr noundef nonnull @.str.1)
          to label %9 unwind label %10

9:                                                ; preds = %4, %1
  tail call void @_ZN3zmq13socket_base_tD2Ev(ptr noundef nonnull align 8 dereferenceable(1825) %0) #14
  ret void

10:                                               ; preds = %4
  %11 = landingpad { ptr, i32 }
          catch ptr null
  %12 = extractvalue { ptr, i32 } %11, 0
  tail call void @__clang_call_terminate(ptr %12) #15
  unreachable
}